---
triple:          'arm64-apple-darwin'
binary-path:     a.out
relocations:
  - { offsetInCU: 0x3F, offset: 0x3F, size: 0x8, addend: 0x0, symName: _prodSet, symObjAddr: 0x25570, symBinAddr: 0x100008000, symSize: 0x0 }
  - { offsetInCU: 0x5750, offset: 0x5750, size: 0x8, addend: 0x0, symName: __ZNSt3__13maxB7v160006IiEERKT_S3_S3_, symObjAddr: 0x1A4, symBinAddr: 0x100001950, symSize: 0x2C }
  - { offsetInCU: 0x5793, offset: 0x5793, size: 0x8, addend: 0x0, symName: __ZNSt3__14fillB7v160006IPiiEEvT_S2_RKT0_, symObjAddr: 0x30C, symBinAddr: 0x100001AB8, symSize: 0x34 }
  - { offsetInCU: 0x643F, offset: 0x643F, size: 0x8, addend: 0x0, symName: __ZNSt3__14endlB7v160006IcNS_11char_traitsIcEEEERNS_13basic_ostreamIT_T0_EES7_, symObjAddr: 0x3D8, symBinAddr: 0x100001B84, symSize: 0x58 }
  - { offsetInCU: 0x647F, offset: 0x647F, size: 0x8, addend: 0x0, symName: __ZNSt3__118__debug_db_erase_cB7v160006INS_6vectorI7productNS_9allocatorIS2_EEEEEEvPT_, symObjAddr: 0x628, symBinAddr: 0x100001DD4, symSize: 0x10 }
  - { offsetInCU: 0x64B0, offset: 0x64B0, size: 0x8, addend: 0x0, symName: __ZNSt3__112__to_addressB7v160006I7productEEPT_S3_, symObjAddr: 0x76C, symBinAddr: 0x100001F18, symSize: 0x14 }
  - { offsetInCU: 0x64E5, offset: 0x64E5, size: 0x8, addend: 0x0, symName: __ZNSt3__110destroy_atB7v160006I7productLi0EEEvPT_, symObjAddr: 0x834, symBinAddr: 0x100001FE0, symSize: 0x24 }
  - { offsetInCU: 0x651C, offset: 0x651C, size: 0x8, addend: 0x0, symName: __ZNSt3__112__destroy_atB7v160006I7productLi0EEEvPT_, symObjAddr: 0x858, symBinAddr: 0x100002004, symSize: 0x10 }
  - { offsetInCU: 0x6553, offset: 0x6553, size: 0x8, addend: 0x0, symName: __ZNSt3__119__libcpp_deallocateB7v160006EPvmm, symObjAddr: 0x8A8, symBinAddr: 0x100002054, symSize: 0x60 }
  - { offsetInCU: 0x65B8, offset: 0x65B8, size: 0x8, addend: 0x0, symName: __ZNSt3__124__is_overaligned_for_newB7v160006Em, symObjAddr: 0x908, symBinAddr: 0x1000020B4, symSize: 0x20 }
  - { offsetInCU: 0x65E6, offset: 0x65E6, size: 0x8, addend: 0x0, symName: __ZNSt3__127__do_deallocate_handle_sizeB7v160006IJSt11align_val_tEEEvPvmDpT_, symObjAddr: 0x928, symBinAddr: 0x1000020D4, symSize: 0x30 }
  - { offsetInCU: 0x6639, offset: 0x6639, size: 0x8, addend: 0x0, symName: __ZNSt3__127__do_deallocate_handle_sizeB7v160006IJEEEvPvmDpT_, symObjAddr: 0x958, symBinAddr: 0x100002104, symSize: 0x28 }
  - { offsetInCU: 0x6677, offset: 0x6677, size: 0x8, addend: 0x0, symName: __ZNSt3__124__libcpp_operator_deleteB7v160006IJPvSt11align_val_tEEEvDpT_, symObjAddr: 0x980, symBinAddr: 0x10000212C, symSize: 0x2C }
  - { offsetInCU: 0x66C0, offset: 0x66C0, size: 0x8, addend: 0x0, symName: __ZNSt3__124__libcpp_operator_deleteB7v160006IJPvEEEvDpT_, symObjAddr: 0x9AC, symBinAddr: 0x100002158, symSize: 0x24 }
  - { offsetInCU: 0x66F5, offset: 0x66F5, size: 0x8, addend: 0x0, symName: __ZNSt3__13maxB7v160006IiNS_6__lessIiiEEEERKT_S5_S5_T0_, symObjAddr: 0xA68, symBinAddr: 0x100002214, symSize: 0x54 }
  - { offsetInCU: 0x678A, offset: 0x678A, size: 0x8, addend: 0x0, symName: __ZNSt3__16__fillB7v160006IPiiEEvT_S2_RKT0_NS_26random_access_iterator_tagE, symObjAddr: 0xAF0, symBinAddr: 0x10000229C, symSize: 0x44 }
  - { offsetInCU: 0x67EA, offset: 0x67EA, size: 0x8, addend: 0x0, symName: __ZNSt3__16fill_nB7v160006IPiliEET_S2_T0_RKT1_, symObjAddr: 0xB34, symBinAddr: 0x1000022E0, symSize: 0x44 }
  - { offsetInCU: 0x684D, offset: 0x684D, size: 0x8, addend: 0x0, symName: __ZNSt3__18__fill_nB7v160006IPiliEET_S2_T0_RKT1_, symObjAddr: 0xB78, symBinAddr: 0x100002324, symSize: 0x64 }
  - { offsetInCU: 0x68B0, offset: 0x68B0, size: 0x8, addend: 0x0, symName: __ZNSt3__121__convert_to_integralB7v160006El, symObjAddr: 0xBDC, symBinAddr: 0x100002388, symSize: 0x14 }
  - { offsetInCU: 0x6901, offset: 0x6901, size: 0x8, addend: 0x0, symName: __ZNSt3__112construct_atB7v160006I7productJRKS1_EPS1_EEPT_S6_DpOT0_, symObjAddr: 0xE94, symBinAddr: 0x100002640, symSize: 0x2C }
  - { offsetInCU: 0x6971, offset: 0x6971, size: 0x8, addend: 0x0, symName: __ZNSt3__13maxB7v160006ImEERKT_S3_S3_, symObjAddr: 0x1198, symBinAddr: 0x100002944, symSize: 0x2C }
  - { offsetInCU: 0x69B4, offset: 0x69B4, size: 0x8, addend: 0x0, symName: __ZNSt3__13minB7v160006ImEERKT_S3_S3_, symObjAddr: 0x11C4, symBinAddr: 0x100002970, symSize: 0x2C }
  - { offsetInCU: 0x6BE1, offset: 0x6BE1, size: 0x8, addend: 0x0, symName: __ZNSt3__13minB7v160006ImNS_6__lessImmEEEERKT_S5_S5_T0_, symObjAddr: 0x1254, symBinAddr: 0x100002A00, symSize: 0x54 }
  - { offsetInCU: 0x6E62, offset: 0x6E62, size: 0x8, addend: 0x0, symName: __ZNSt3__120__throw_length_errorB7v160006EPKc, symObjAddr: 0x1338, symBinAddr: 0x100002AE4, symSize: 0x64 }
  - { offsetInCU: 0x6E8A, offset: 0x6E8A, size: 0x8, addend: 0x0, symName: __ZNSt3__13maxB7v160006ImNS_6__lessImmEEEERKT_S5_S5_T0_, symObjAddr: 0x141C, symBinAddr: 0x100002BC8, symSize: 0x54 }
  - { offsetInCU: 0x6EE4, offset: 0x6EE4, size: 0x8, addend: 0x0, symName: __ZNSt3__119__allocate_at_leastB7v160006INS_9allocatorI7productEEEENS_19__allocation_resultINS_16allocator_traitsIT_E7pointerEEERS6_m, symObjAddr: 0x1580, symBinAddr: 0x100002D2C, symSize: 0x40 }
  - { offsetInCU: 0x6F27, offset: 0x6F27, size: 0x8, addend: 0x0, symName: __ZNSt3__117__libcpp_allocateB7v160006Emm, symObjAddr: 0x1720, symBinAddr: 0x100002ECC, symSize: 0x60 }
  - { offsetInCU: 0x6F81, offset: 0x6F81, size: 0x8, addend: 0x0, symName: __ZNSt3__121__libcpp_operator_newB7v160006IJmSt11align_val_tEEEPvDpT_, symObjAddr: 0x1780, symBinAddr: 0x100002F2C, symSize: 0x2C }
  - { offsetInCU: 0x6FCE, offset: 0x6FCE, size: 0x8, addend: 0x0, symName: __ZNSt3__121__libcpp_operator_newB7v160006IJmEEEPvDpT_, symObjAddr: 0x17AC, symBinAddr: 0x100002F58, symSize: 0x24 }
  - { offsetInCU: 0x7007, offset: 0x7007, size: 0x8, addend: 0x0, symName: __ZNSt3__142__uninitialized_allocator_move_if_noexceptB7v160006INS_9allocatorI7productEENS_16reverse_iteratorIPS2_EES6_S2_vEET1_RT_T0_SA_S7_, symObjAddr: 0x1834, symBinAddr: 0x100002FE0, symSize: 0x78 }
  - { offsetInCU: 0x7084, offset: 0x7084, size: 0x8, addend: 0x0, symName: __ZNSt3__14swapB7v160006IP7productEENS_9enable_ifIXaasr21is_move_constructibleIT_EE5valuesr18is_move_assignableIS4_EE5valueEvE4typeERS4_S7_, symObjAddr: 0x18F8, symBinAddr: 0x1000030A4, symSize: 0x3C }
  - { offsetInCU: 0x70D5, offset: 0x70D5, size: 0x8, addend: 0x0, symName: __ZNSt3__125__debug_db_invalidate_allB7v160006INS_6vectorI7productNS_9allocatorIS2_EEEEEEvPT_, symObjAddr: 0x19E0, symBinAddr: 0x10000318C, symSize: 0x10 }
  - { offsetInCU: 0x7106, offset: 0x7106, size: 0x8, addend: 0x0, symName: __ZNSt3__14moveB7v160006INS_16reverse_iteratorIP7productEES4_EET0_T_S6_S5_, symObjAddr: 0x19F0, symBinAddr: 0x10000319C, symSize: 0x78 }
  - { offsetInCU: 0x7160, offset: 0x7160, size: 0x8, addend: 0x0, symName: __ZNSt3__16__moveB7v160006INS_17_ClassicAlgPolicyENS_16reverse_iteratorIP7productEES5_S5_EENS_4pairIT0_T2_EES7_T1_S8_, symObjAddr: 0x1A68, symBinAddr: 0x100003214, symSize: 0x64 }
  - { offsetInCU: 0x71CC, offset: 0x71CC, size: 0x8, addend: 0x0, symName: __ZNSt3__123__dispatch_copy_or_moveB7v160006INS_17_ClassicAlgPolicyENS_11__move_loopIS1_EENS_14__move_trivialENS_16reverse_iteratorIP7productEES8_S8_EENS_4pairIT2_T4_EESA_T3_SB_, symObjAddr: 0x1ACC, symBinAddr: 0x100003278, symSize: 0x64 }
  - { offsetInCU: 0x724A, offset: 0x724A, size: 0x8, addend: 0x0, symName: __ZNSt3__121__unwrap_and_dispatchB7v160006INS_10__overloadINS_11__move_loopINS_17_ClassicAlgPolicyEEENS_14__move_trivialEEENS_16reverse_iteratorIP7productEESA_SA_Li0EEENS_4pairIT0_T2_EESC_T1_SD_, symObjAddr: 0x1B30, symBinAddr: 0x1000032DC, symSize: 0x12C }
  - { offsetInCU: 0x72DA, offset: 0x72DA, size: 0x8, addend: 0x0, symName: __ZNSt3__114__unwrap_rangeB7v160006INS_16reverse_iteratorIP7productEES4_EEDaT_T0_, symObjAddr: 0x1C5C, symBinAddr: 0x100003408, symSize: 0x4C }
  - { offsetInCU: 0x7455, offset: 0x7455, size: 0x8, addend: 0x0, symName: __ZNSt3__113__unwrap_iterB7v160006INS_16reverse_iteratorIP7productEENS_18__unwrap_iter_implIS4_Lb0EEELi0EEEDTclsrT0_8__unwrapclsr3stdE7declvalIT_EEEES8_, symObjAddr: 0x1D48, symBinAddr: 0x1000034F4, symSize: 0x44 }
  - { offsetInCU: 0x7499, offset: 0x7499, size: 0x8, addend: 0x0, symName: __ZNSt3__19make_pairB7v160006INS_16reverse_iteratorIP7productEES4_EENS_4pairINS_18__unwrap_ref_decayIT_E4typeENS6_IT0_E4typeEEEOS7_OSA_, symObjAddr: 0x1D8C, symBinAddr: 0x100003538, symSize: 0x38 }
  - { offsetInCU: 0x74E8, offset: 0x74E8, size: 0x8, addend: 0x0, symName: __ZNSt3__114__rewrap_rangeB7v160006INS_16reverse_iteratorIP7productEES4_S4_EET0_S5_T1_, symObjAddr: 0x1DC4, symBinAddr: 0x100003570, symSize: 0x5C }
  - { offsetInCU: 0x753D, offset: 0x753D, size: 0x8, addend: 0x0, symName: __ZNSt3__113__rewrap_iterB7v160006INS_16reverse_iteratorIP7productEES4_NS_18__unwrap_iter_implIS4_Lb0EEEEET_S7_T0_, symObjAddr: 0x1E20, symBinAddr: 0x1000035CC, symSize: 0x74 }
  - { offsetInCU: 0x75E2, offset: 0x75E2, size: 0x8, addend: 0x0, symName: __ZNSt3__1neB7v160006IP7productS2_EEbRKNS_16reverse_iteratorIT_EERKNS3_IT0_EE, symObjAddr: 0x1F88, symBinAddr: 0x100003734, symSize: 0x48 }
  - { offsetInCU: 0x76E0, offset: 0x76E0, size: 0x8, addend: 0x0, symName: __ZNSt3__19use_facetB7v160006INS_5ctypeIcEEEERKT_RKNS_6localeE, symObjAddr: 0x2388, symBinAddr: 0x100003B34, symSize: 0x2C }
  - { offsetInCU: 0x7E5B, offset: 0x7E5B, size: 0x8, addend: 0x0, symName: __ZSt28__throw_bad_array_new_lengthB7v160006v, symObjAddr: 0x16EC, symBinAddr: 0x100002E98, symSize: 0x34 }
  - { offsetInCU: 0x8045, offset: 0x8045, size: 0x8, addend: 0x0, symName: _cache, symObjAddr: 0x25588, symBinAddr: 0x100008018, symSize: 0x0 }
  - { offsetInCU: 0x8358, offset: 0x8358, size: 0x8, addend: 0x0, symName: __ZNSt3__16vectorI7productNS_9allocatorIS1_EEE26__swap_out_circular_bufferERNS_14__split_bufferIS1_RS3_EE, symObjAddr: 0xFD8, symBinAddr: 0x100002784, symSize: 0x118 }
  - { offsetInCU: 0xA612, offset: 0xA612, size: 0x8, addend: 0x0, symName: __ZNSt3__16vectorI7productNS_9allocatorIS1_EEED1B7v160006Ev, symObjAddr: 0x0, symBinAddr: 0x1000017AC, symSize: 0x2C }
  - { offsetInCU: 0xA63B, offset: 0xA63B, size: 0x8, addend: 0x0, symName: __Z2dpii, symObjAddr: 0x2C, symBinAddr: 0x1000017D8, symSize: 0x154 }
  - { offsetInCU: 0xA692, offset: 0xA692, size: 0x8, addend: 0x0, symName: __ZNSt3__16vectorI7productNS_9allocatorIS1_EEEixB7v160006Em, symObjAddr: 0x180, symBinAddr: 0x10000192C, symSize: 0x24 }
  - { offsetInCU: 0xA6C9, offset: 0xA6C9, size: 0x8, addend: 0x0, symName: _main, symObjAddr: 0x1D0, symBinAddr: 0x10000197C, symSize: 0x13C }
  - { offsetInCU: 0xA770, offset: 0xA770, size: 0x8, addend: 0x0, symName: __ZNSt3__16vectorI7productNS_9allocatorIS1_EEE9push_backB7v160006ERKS1_, symObjAddr: 0x340, symBinAddr: 0x100001AEC, symSize: 0x6C }
  - { offsetInCU: 0xA857, offset: 0xA857, size: 0x8, addend: 0x0, symName: __ZNSt3__113basic_ostreamIcNS_11char_traitsIcEEElsB7v160006EPFRS3_S4_E, symObjAddr: 0x3AC, symBinAddr: 0x100001B58, symSize: 0x2C }
  - { offsetInCU: 0xA88B, offset: 0xA88B, size: 0x8, addend: 0x0, symName: __ZNSt3__16vectorI7productNS_9allocatorIS1_EEED2B7v160006Ev, symObjAddr: 0x430, symBinAddr: 0x100001BDC, symSize: 0x44 }
  - { offsetInCU: 0xA8B5, offset: 0xA8B5, size: 0x8, addend: 0x0, symName: __ZNSt3__16vectorI7productNS_9allocatorIS1_EEE16__destroy_vectorC1ERS4_, symObjAddr: 0x474, symBinAddr: 0x100001C20, symSize: 0x34 }
  - { offsetInCU: 0xA8EE, offset: 0xA8EE, size: 0x8, addend: 0x0, symName: __ZNSt3__16vectorI7productNS_9allocatorIS1_EEE16__destroy_vectorclB7v160006Ev, symObjAddr: 0x4B4, symBinAddr: 0x100001C60, symSize: 0x9C }
  - { offsetInCU: 0xA914, offset: 0xA914, size: 0x8, addend: 0x0, symName: __ZNSt3__16vectorI7productNS_9allocatorIS1_EEE16__destroy_vectorC2ERS4_, symObjAddr: 0x550, symBinAddr: 0x100001CFC, symSize: 0x20 }
  - { offsetInCU: 0xA94D, offset: 0xA94D, size: 0x8, addend: 0x0, symName: __ZNKSt3__16vectorI7productNS_9allocatorIS1_EEE17__annotate_deleteB7v160006Ev, symObjAddr: 0x570, symBinAddr: 0x100001D1C, symSize: 0xB8 }
  - { offsetInCU: 0xA973, offset: 0xA973, size: 0x8, addend: 0x0, symName: __ZNSt3__16vectorI7productNS_9allocatorIS1_EEE7__clearB7v160006Ev, symObjAddr: 0x638, symBinAddr: 0x100001DE4, symSize: 0x28 }
  - { offsetInCU: 0xA999, offset: 0xA999, size: 0x8, addend: 0x0, symName: __ZNSt3__116allocator_traitsINS_9allocatorI7productEEE10deallocateB7v160006ERS3_PS2_m, symObjAddr: 0x660, symBinAddr: 0x100001E0C, symSize: 0x34 }
  - { offsetInCU: 0xA9DB, offset: 0xA9DB, size: 0x8, addend: 0x0, symName: __ZNSt3__16vectorI7productNS_9allocatorIS1_EEE7__allocB7v160006Ev, symObjAddr: 0x694, symBinAddr: 0x100001E40, symSize: 0x28 }
  - { offsetInCU: 0xAA01, offset: 0xAA01, size: 0x8, addend: 0x0, symName: __ZNKSt3__16vectorI7productNS_9allocatorIS1_EEE8capacityB7v160006Ev, symObjAddr: 0x6BC, symBinAddr: 0x100001E68, symSize: 0x40 }
  - { offsetInCU: 0xAA27, offset: 0xAA27, size: 0x8, addend: 0x0, symName: __ZNKSt3__16vectorI7productNS_9allocatorIS1_EEE31__annotate_contiguous_containerB7v160006EPKvS6_S6_S6_, symObjAddr: 0x6FC, symBinAddr: 0x100001EA8, symSize: 0x20 }
  - { offsetInCU: 0xAA79, offset: 0xAA79, size: 0x8, addend: 0x0, symName: __ZNKSt3__16vectorI7productNS_9allocatorIS1_EEE4dataB7v160006Ev, symObjAddr: 0x71C, symBinAddr: 0x100001EC8, symSize: 0x28 }
  - { offsetInCU: 0xAA9F, offset: 0xAA9F, size: 0x8, addend: 0x0, symName: __ZNKSt3__16vectorI7productNS_9allocatorIS1_EEE4sizeB7v160006Ev, symObjAddr: 0x744, symBinAddr: 0x100001EF0, symSize: 0x28 }
  - { offsetInCU: 0xAAC5, offset: 0xAAC5, size: 0x8, addend: 0x0, symName: __ZNSt3__16vectorI7productNS_9allocatorIS1_EEE22__base_destruct_at_endB7v160006EPS1_, symObjAddr: 0x780, symBinAddr: 0x100001F2C, symSize: 0x8C }
  - { offsetInCU: 0xAB09, offset: 0xAB09, size: 0x8, addend: 0x0, symName: __ZNSt3__116allocator_traitsINS_9allocatorI7productEEE7destroyB7v160006IS2_vvEEvRS3_PT_, symObjAddr: 0x80C, symBinAddr: 0x100001FB8, symSize: 0x28 }
  - { offsetInCU: 0xAB43, offset: 0xAB43, size: 0x8, addend: 0x0, symName: __ZNSt3__19allocatorI7productE10deallocateB7v160006EPS1_m, symObjAddr: 0x868, symBinAddr: 0x100002014, symSize: 0x40 }
  - { offsetInCU: 0xAB85, offset: 0xAB85, size: 0x8, addend: 0x0, symName: __ZNSt3__117__compressed_pairIP7productNS_9allocatorIS1_EEE6secondB7v160006Ev, symObjAddr: 0x9D0, symBinAddr: 0x10000217C, symSize: 0x24 }
  - { offsetInCU: 0xABAB, offset: 0xABAB, size: 0x8, addend: 0x0, symName: __ZNSt3__122__compressed_pair_elemINS_9allocatorI7productEELi1ELb1EE5__getB7v160006Ev, symObjAddr: 0x9F4, symBinAddr: 0x1000021A0, symSize: 0x14 }
  - { offsetInCU: 0xABD1, offset: 0xABD1, size: 0x8, addend: 0x0, symName: __ZNKSt3__16vectorI7productNS_9allocatorIS1_EEE9__end_capB7v160006Ev, symObjAddr: 0xA08, symBinAddr: 0x1000021B4, symSize: 0x28 }
  - { offsetInCU: 0xABF7, offset: 0xABF7, size: 0x8, addend: 0x0, symName: __ZNKSt3__117__compressed_pairIP7productNS_9allocatorIS1_EEE5firstB7v160006Ev, symObjAddr: 0xA30, symBinAddr: 0x1000021DC, symSize: 0x24 }
  - { offsetInCU: 0xAC1D, offset: 0xAC1D, size: 0x8, addend: 0x0, symName: __ZNKSt3__122__compressed_pair_elemIP7productLi0ELb0EE5__getB7v160006Ev, symObjAddr: 0xA54, symBinAddr: 0x100002200, symSize: 0x14 }
  - { offsetInCU: 0xAC52, offset: 0xAC52, size: 0x8, addend: 0x0, symName: __ZNKSt3__16__lessIiiEclB7v160006ERKiS3_, symObjAddr: 0xABC, symBinAddr: 0x100002268, symSize: 0x34 }
  - { offsetInCU: 0xAC94, offset: 0xAC94, size: 0x8, addend: 0x0, symName: __ZNSt3__16vectorI7productNS_9allocatorIS1_EEE9__end_capB7v160006Ev, symObjAddr: 0xBF0, symBinAddr: 0x10000239C, symSize: 0x28 }
  - { offsetInCU: 0xACBF, offset: 0xACBF, size: 0x8, addend: 0x0, symName: __ZNSt3__16vectorI7productNS_9allocatorIS1_EEE22__construct_one_at_endB7v160006IJRKS1_EEEvDpOT_, symObjAddr: 0xC18, symBinAddr: 0x1000023C4, symSize: 0x90 }
  - { offsetInCU: 0xAD0E, offset: 0xAD0E, size: 0x8, addend: 0x0, symName: __ZNSt3__16vectorI7productNS_9allocatorIS1_EEE21__push_back_slow_pathIRKS1_EEvOT_, symObjAddr: 0xCA8, symBinAddr: 0x100002454, symSize: 0xD8 }
  - { offsetInCU: 0xAD6C, offset: 0xAD6C, size: 0x8, addend: 0x0, symName: __ZNSt3__117__compressed_pairIP7productNS_9allocatorIS1_EEE5firstB7v160006Ev, symObjAddr: 0xD80, symBinAddr: 0x10000252C, symSize: 0x24 }
  - { offsetInCU: 0xAD92, offset: 0xAD92, size: 0x8, addend: 0x0, symName: __ZNSt3__122__compressed_pair_elemIP7productLi0ELb0EE5__getB7v160006Ev, symObjAddr: 0xDA4, symBinAddr: 0x100002550, symSize: 0x14 }
  - { offsetInCU: 0xADD1, offset: 0xADD1, size: 0x8, addend: 0x0, symName: __ZNSt3__16vectorI7productNS_9allocatorIS1_EEE21_ConstructTransactionC1B7v160006ERS4_m, symObjAddr: 0xDB8, symBinAddr: 0x100002564, symSize: 0x3C }
  - { offsetInCU: 0xAE19, offset: 0xAE19, size: 0x8, addend: 0x0, symName: __ZNSt3__116allocator_traitsINS_9allocatorI7productEEE9constructB7v160006IS2_JRKS2_EvvEEvRS3_PT_DpOT0_, symObjAddr: 0xDF4, symBinAddr: 0x1000025A0, symSize: 0x30 }
  - { offsetInCU: 0xAE6D, offset: 0xAE6D, size: 0x8, addend: 0x0, symName: __ZNSt3__16vectorI7productNS_9allocatorIS1_EEE21_ConstructTransactionD1B7v160006Ev, symObjAddr: 0xE24, symBinAddr: 0x1000025D0, symSize: 0x2C }
  - { offsetInCU: 0xAE97, offset: 0xAE97, size: 0x8, addend: 0x0, symName: __ZNSt3__16vectorI7productNS_9allocatorIS1_EEE21_ConstructTransactionC2B7v160006ERS4_m, symObjAddr: 0xE50, symBinAddr: 0x1000025FC, symSize: 0x44 }
  - { offsetInCU: 0xAEDF, offset: 0xAEDF, size: 0x8, addend: 0x0, symName: __ZNSt3__16vectorI7productNS_9allocatorIS1_EEE21_ConstructTransactionD2B7v160006Ev, symObjAddr: 0xEC0, symBinAddr: 0x10000266C, symSize: 0x20 }
  - { offsetInCU: 0xAF09, offset: 0xAF09, size: 0x8, addend: 0x0, symName: __ZNKSt3__16vectorI7productNS_9allocatorIS1_EEE11__recommendB7v160006Em, symObjAddr: 0xEE0, symBinAddr: 0x10000268C, symSize: 0xB4 }
  - { offsetInCU: 0xAF5E, offset: 0xAF5E, size: 0x8, addend: 0x0, symName: __ZNSt3__114__split_bufferI7productRNS_9allocatorIS1_EEEC1EmmS4_, symObjAddr: 0xF94, symBinAddr: 0x100002740, symSize: 0x44 }
  - { offsetInCU: 0xAFB4, offset: 0xAFB4, size: 0x8, addend: 0x0, symName: __ZNSt3__114__split_bufferI7productRNS_9allocatorIS1_EEED1Ev, symObjAddr: 0x10F0, symBinAddr: 0x10000289C, symSize: 0x2C }
  - { offsetInCU: 0xAFE0, offset: 0xAFE0, size: 0x8, addend: 0x0, symName: __ZNKSt3__16vectorI7productNS_9allocatorIS1_EEE8max_sizeEv, symObjAddr: 0x111C, symBinAddr: 0x1000028C8, symSize: 0x60 }
  - { offsetInCU: 0xB008, offset: 0xB008, size: 0x8, addend: 0x0, symName: __ZNKSt3__16vectorI7productNS_9allocatorIS1_EEE20__throw_length_errorB7v160006Ev, symObjAddr: 0x117C, symBinAddr: 0x100002928, symSize: 0x1C }
  - { offsetInCU: 0xB038, offset: 0xB038, size: 0x8, addend: 0x0, symName: __ZNSt3__116allocator_traitsINS_9allocatorI7productEEE8max_sizeB7v160006IS3_vvEEmRKS3_, symObjAddr: 0x11F0, symBinAddr: 0x10000299C, symSize: 0x28 }
  - { offsetInCU: 0xB063, offset: 0xB063, size: 0x8, addend: 0x0, symName: __ZNKSt3__16vectorI7productNS_9allocatorIS1_EEE7__allocB7v160006Ev, symObjAddr: 0x1218, symBinAddr: 0x1000029C4, symSize: 0x28 }
  - { offsetInCU: 0xB089, offset: 0xB089, size: 0x8, addend: 0x0, symName: __ZNSt3__114numeric_limitsIlE3maxB7v160006Ev, symObjAddr: 0x1240, symBinAddr: 0x1000029EC, symSize: 0x14 }
  - { offsetInCU: 0xB0B1, offset: 0xB0B1, size: 0x8, addend: 0x0, symName: __ZNKSt3__16__lessImmEclB7v160006ERKmS3_, symObjAddr: 0x12A8, symBinAddr: 0x100002A54, symSize: 0x34 }
  - { offsetInCU: 0xB0F3, offset: 0xB0F3, size: 0x8, addend: 0x0, symName: __ZNSt3__114numeric_limitsImE3maxB7v160006Ev, symObjAddr: 0x12DC, symBinAddr: 0x100002A88, symSize: 0x14 }
  - { offsetInCU: 0xB107, offset: 0xB107, size: 0x8, addend: 0x0, symName: __ZNSt3__123__libcpp_numeric_limitsImLb1EE3maxB7v160006Ev, symObjAddr: 0x12F0, symBinAddr: 0x100002A9C, symSize: 0x8 }
  - { offsetInCU: 0xB11B, offset: 0xB11B, size: 0x8, addend: 0x0, symName: __ZNKSt3__117__compressed_pairIP7productNS_9allocatorIS1_EEE6secondB7v160006Ev, symObjAddr: 0x12F8, symBinAddr: 0x100002AA4, symSize: 0x24 }
  - { offsetInCU: 0xB141, offset: 0xB141, size: 0x8, addend: 0x0, symName: __ZNKSt3__122__compressed_pair_elemINS_9allocatorI7productEELi1ELb1EE5__getB7v160006Ev, symObjAddr: 0x131C, symBinAddr: 0x100002AC8, symSize: 0x14 }
  - { offsetInCU: 0xB167, offset: 0xB167, size: 0x8, addend: 0x0, symName: __ZNSt3__123__libcpp_numeric_limitsIlLb1EE3maxB7v160006Ev, symObjAddr: 0x1330, symBinAddr: 0x100002ADC, symSize: 0x8 }
  - { offsetInCU: 0xB17B, offset: 0xB17B, size: 0x8, addend: 0x0, symName: __ZNSt12length_errorC1B7v160006EPKc, symObjAddr: 0x139C, symBinAddr: 0x100002B48, symSize: 0x34 }
  - { offsetInCU: 0xB1B3, offset: 0xB1B3, size: 0x8, addend: 0x0, symName: __ZNSt12length_errorC2B7v160006EPKc, symObjAddr: 0x13D0, symBinAddr: 0x100002B7C, symSize: 0x4C }
  - { offsetInCU: 0xB1EB, offset: 0xB1EB, size: 0x8, addend: 0x0, symName: __ZNSt3__114__split_bufferI7productRNS_9allocatorIS1_EEEC2EmmS4_, symObjAddr: 0x1470, symBinAddr: 0x100002C1C, symSize: 0xD4 }
  - { offsetInCU: 0xB263, offset: 0xB263, size: 0x8, addend: 0x0, symName: __ZNSt3__117__compressed_pairIP7productRNS_9allocatorIS1_EEEC1B7v160006IDnS5_EEOT_OT0_, symObjAddr: 0x1544, symBinAddr: 0x100002CF0, symSize: 0x3C }
  - { offsetInCU: 0xB2BB, offset: 0xB2BB, size: 0x8, addend: 0x0, symName: __ZNSt3__114__split_bufferI7productRNS_9allocatorIS1_EEE7__allocB7v160006Ev, symObjAddr: 0x15C0, symBinAddr: 0x100002D6C, symSize: 0x28 }
  - { offsetInCU: 0xB2E1, offset: 0xB2E1, size: 0x8, addend: 0x0, symName: __ZNSt3__114__split_bufferI7productRNS_9allocatorIS1_EEE9__end_capB7v160006Ev, symObjAddr: 0x15E8, symBinAddr: 0x100002D94, symSize: 0x28 }
  - { offsetInCU: 0xB307, offset: 0xB307, size: 0x8, addend: 0x0, symName: __ZNSt3__117__compressed_pairIP7productRNS_9allocatorIS1_EEEC2B7v160006IDnS5_EEOT_OT0_, symObjAddr: 0x1610, symBinAddr: 0x100002DBC, symSize: 0x48 }
  - { offsetInCU: 0xB35F, offset: 0xB35F, size: 0x8, addend: 0x0, symName: __ZNSt3__122__compressed_pair_elemIP7productLi0ELb0EEC2B7v160006IDnvEEOT_, symObjAddr: 0x1658, symBinAddr: 0x100002E04, symSize: 0x1C }
  - { offsetInCU: 0xB3A1, offset: 0xB3A1, size: 0x8, addend: 0x0, symName: __ZNSt3__122__compressed_pair_elemIRNS_9allocatorI7productEELi1ELb0EEC2B7v160006IS4_vEEOT_, symObjAddr: 0x1674, symBinAddr: 0x100002E20, symSize: 0x20 }
  - { offsetInCU: 0xB3E3, offset: 0xB3E3, size: 0x8, addend: 0x0, symName: __ZNSt3__19allocatorI7productE8allocateB7v160006Em, symObjAddr: 0x1694, symBinAddr: 0x100002E40, symSize: 0x58 }
  - { offsetInCU: 0xB417, offset: 0xB417, size: 0x8, addend: 0x0, symName: __ZNSt3__117__compressed_pairIP7productRNS_9allocatorIS1_EEE6secondB7v160006Ev, symObjAddr: 0x17D0, symBinAddr: 0x100002F7C, symSize: 0x28 }
  - { offsetInCU: 0xB43D, offset: 0xB43D, size: 0x8, addend: 0x0, symName: __ZNSt3__122__compressed_pair_elemIRNS_9allocatorI7productEELi1ELb0EE5__getB7v160006Ev, symObjAddr: 0x17F8, symBinAddr: 0x100002FA4, symSize: 0x18 }
  - { offsetInCU: 0xB463, offset: 0xB463, size: 0x8, addend: 0x0, symName: __ZNSt3__117__compressed_pairIP7productRNS_9allocatorIS1_EEE5firstB7v160006Ev, symObjAddr: 0x1810, symBinAddr: 0x100002FBC, symSize: 0x24 }
  - { offsetInCU: 0xB489, offset: 0xB489, size: 0x8, addend: 0x0, symName: __ZNSt3__116reverse_iteratorIP7productEC1B7v160006ES2_, symObjAddr: 0x18AC, symBinAddr: 0x100003058, symSize: 0x34 }
  - { offsetInCU: 0xB4C1, offset: 0xB4C1, size: 0x8, addend: 0x0, symName: __ZNKSt3__116reverse_iteratorIP7productE4baseB7v160006Ev, symObjAddr: 0x18E0, symBinAddr: 0x10000308C, symSize: 0x18 }
  - { offsetInCU: 0xB4E7, offset: 0xB4E7, size: 0x8, addend: 0x0, symName: __ZNKSt3__16vectorI7productNS_9allocatorIS1_EEE14__annotate_newB7v160006Em, symObjAddr: 0x1934, symBinAddr: 0x1000030E0, symSize: 0xAC }
  - { offsetInCU: 0xB53F, offset: 0xB53F, size: 0x8, addend: 0x0, symName: __ZNKSt3__111__move_loopINS_17_ClassicAlgPolicyEEclB7v160006INS_16reverse_iteratorIP7productEES7_S7_EENS_4pairIT_T1_EES9_T0_SA_, symObjAddr: 0x1CA8, symBinAddr: 0x100003454, symSize: 0xA0 }
  - { offsetInCU: 0xB5AA, offset: 0xB5AA, size: 0x8, addend: 0x0, symName: __ZNSt3__119__unwrap_range_implINS_16reverse_iteratorIP7productEES4_E8__unwrapB7v160006ES4_S4_, symObjAddr: 0x1E94, symBinAddr: 0x100003640, symSize: 0x84 }
  - { offsetInCU: 0xB5E0, offset: 0xB5E0, size: 0x8, addend: 0x0, symName: __ZNSt3__14pairINS_16reverse_iteratorIP7productEES4_EC1B7v160006IS4_S4_LPv0EEEOT_OT0_, symObjAddr: 0x1F18, symBinAddr: 0x1000036C4, symSize: 0x3C }
  - { offsetInCU: 0xB63E, offset: 0xB63E, size: 0x8, addend: 0x0, symName: __ZNSt3__14pairINS_16reverse_iteratorIP7productEES4_EC2B7v160006IS4_S4_LPv0EEEOT_OT0_, symObjAddr: 0x1F54, symBinAddr: 0x100003700, symSize: 0x34 }
  - { offsetInCU: 0xB6A1, offset: 0xB6A1, size: 0x8, addend: 0x0, symName: __ZNSt3__18_IterOpsINS_17_ClassicAlgPolicyEE11__iter_moveB7v160006IRNS_16reverse_iteratorIP7productEEEENS_9enable_ifIXsr12is_referenceIDTdeclsr3stdE7declvalIRT_EEEEE5valueEDTclsr3stdE4movedeclsr3stdE7declvalISB_EEEEE4typeEOSA_, symObjAddr: 0x1FD0, symBinAddr: 0x10000377C, symSize: 0x28 }
  - { offsetInCU: 0xB6CD, offset: 0xB6CD, size: 0x8, addend: 0x0, symName: __ZNKSt3__116reverse_iteratorIP7productEdeB7v160006Ev, symObjAddr: 0x1FF8, symBinAddr: 0x1000037A4, symSize: 0x28 }
  - { offsetInCU: 0xB701, offset: 0xB701, size: 0x8, addend: 0x0, symName: __ZNSt3__116reverse_iteratorIP7productEppB7v160006Ev, symObjAddr: 0x2020, symBinAddr: 0x1000037CC, symSize: 0x20 }
  - { offsetInCU: 0xB727, offset: 0xB727, size: 0x8, addend: 0x0, symName: __ZNSt3__18_IterOpsINS_17_ClassicAlgPolicyEE25__validate_iter_referenceB7v160006IRNS_16reverse_iteratorIP7productEEEEvv, symObjAddr: 0x2040, symBinAddr: 0x1000037EC, symSize: 0x4 }
  - { offsetInCU: 0xB745, offset: 0xB745, size: 0x8, addend: 0x0, symName: __ZNSt3__118__unwrap_iter_implINS_16reverse_iteratorIP7productEELb0EE8__unwrapB7v160006ES4_, symObjAddr: 0x2044, symBinAddr: 0x1000037F0, symSize: 0x24 }
  - { offsetInCU: 0xB768, offset: 0xB768, size: 0x8, addend: 0x0, symName: __ZNSt3__119__unwrap_range_implINS_16reverse_iteratorIP7productEES4_E8__rewrapB7v160006ES4_S4_, symObjAddr: 0x2068, symBinAddr: 0x100003814, symSize: 0x5C }
  - { offsetInCU: 0xB799, offset: 0xB799, size: 0x8, addend: 0x0, symName: __ZNSt3__118__unwrap_iter_implINS_16reverse_iteratorIP7productEELb0EE8__rewrapB7v160006ES4_S4_, symObjAddr: 0x20C4, symBinAddr: 0x100003870, symSize: 0x2C }
  - { offsetInCU: 0xB7C6, offset: 0xB7C6, size: 0x8, addend: 0x0, symName: __ZNSt3__116reverse_iteratorIP7productEC2B7v160006ES2_, symObjAddr: 0x20F0, symBinAddr: 0x10000389C, symSize: 0x28 }
  - { offsetInCU: 0xB7FE, offset: 0xB7FE, size: 0x8, addend: 0x0, symName: __ZNSt3__114__split_bufferI7productRNS_9allocatorIS1_EEED2Ev, symObjAddr: 0x2118, symBinAddr: 0x1000038C4, symSize: 0x8C }
  - { offsetInCU: 0xB82A, offset: 0xB82A, size: 0x8, addend: 0x0, symName: __ZNSt3__114__split_bufferI7productRNS_9allocatorIS1_EEE5clearB7v160006Ev, symObjAddr: 0x21A4, symBinAddr: 0x100003950, symSize: 0x28 }
  - { offsetInCU: 0xB850, offset: 0xB850, size: 0x8, addend: 0x0, symName: __ZNKSt3__114__split_bufferI7productRNS_9allocatorIS1_EEE8capacityB7v160006Ev, symObjAddr: 0x21CC, symBinAddr: 0x100003978, symSize: 0x40 }
  - { offsetInCU: 0xB876, offset: 0xB876, size: 0x8, addend: 0x0, symName: __ZNSt3__114__split_bufferI7productRNS_9allocatorIS1_EEE17__destruct_at_endB7v160006EPS1_, symObjAddr: 0x220C, symBinAddr: 0x1000039B8, symSize: 0x2C }
  - { offsetInCU: 0xB8AA, offset: 0xB8AA, size: 0x8, addend: 0x0, symName: __ZNSt3__114__split_bufferI7productRNS_9allocatorIS1_EEE17__destruct_at_endB7v160006EPS1_NS_17integral_constantIbLb0EEE, symObjAddr: 0x2238, symBinAddr: 0x1000039E4, symSize: 0x80 }
  - { offsetInCU: 0xB8EA, offset: 0xB8EA, size: 0x8, addend: 0x0, symName: __ZNKSt3__114__split_bufferI7productRNS_9allocatorIS1_EEE9__end_capB7v160006Ev, symObjAddr: 0x22B8, symBinAddr: 0x100003A64, symSize: 0x28 }
  - { offsetInCU: 0xB910, offset: 0xB910, size: 0x8, addend: 0x0, symName: __ZNKSt3__117__compressed_pairIP7productRNS_9allocatorIS1_EEE5firstB7v160006Ev, symObjAddr: 0x22E0, symBinAddr: 0x100003A8C, symSize: 0x24 }
  - { offsetInCU: 0xB936, offset: 0xB936, size: 0x8, addend: 0x0, symName: __ZNKSt3__19basic_iosIcNS_11char_traitsIcEEE5widenB7v160006Ec, symObjAddr: 0x2304, symBinAddr: 0x100003AB0, symSize: 0x84 }
  - { offsetInCU: 0xB9A4, offset: 0xB9A4, size: 0x8, addend: 0x0, symName: __ZNKSt3__15ctypeIcE5widenB7v160006Ec, symObjAddr: 0x23B4, symBinAddr: 0x100003B60, symSize: 0x38 }
...
